; Function Attrs: nofree norecurse nosync nounwind memory(read, inaccessiblemem: none) uwtable
define i32 @Abc_NtkCountSelfFeedLatches(ptr noundef readonly captures(none) %0) local_unnamed_addr #0 {
  %2 = getelementptr inbounds nuw i8, ptr %0, i64 80
  %3 = load ptr, ptr %2, align 8, !tbaa !32
  %4 = getelementptr i8, ptr %3, i64 4
  %.val9 = load i32, ptr %4, align 4, !tbaa !33
  %5 = icmp sgt i32 %.val9, 0
  br i1 %5, label %.lr.ph, label %.critedge

.lr.ph:                                           ; preds = %1
  %6 = getelementptr i8, ptr %3, i64 8
  %.val10.val = load ptr, ptr %6, align 8, !tbaa !29
  %wide.trip.count = zext nneg i32 %.val9 to i64
  br label %7

7:                                                ; preds = %.lr.ph, %62
  %indvars.iv = phi i64 [ 0, %.lr.ph ], [ %indvars.iv.next, %62 ]
  %.012 = phi i32 [ 0, %.lr.ph ], [ %.1, %62 ]
  %8 = getelementptr inbounds nuw ptr, ptr %.val10.val, i64 %indvars.iv
  %9 = load ptr, ptr %8, align 8, !tbaa !31
  %10 = getelementptr i8, ptr %9, i64 20
  %.val = load i32, ptr %10, align 4
  %11 = and i32 %.val, 15
  %.not = icmp eq i32 %11, 8
  br i1 %.not, label %12, label %62

12:                                               ; preds = %7
  %.val11.i = load ptr, ptr %9, align 8, !tbaa !3
  %13 = getelementptr i8, ptr %9, i64 32
  %.val12.i = load ptr, ptr %13, align 8, !tbaa !13
  %14 = getelementptr i8, ptr %.val11.i, i64 32
  %.val11.val.i = load ptr, ptr %14, align 8, !tbaa !14
  %.val12.val.i = load i32, ptr %.val12.i, align 4, !tbaa !28
  %15 = getelementptr i8, ptr %.val11.val.i, i64 8
  %.val11.val.val.i = load ptr, ptr %15, align 8, !tbaa !29
  %16 = sext i32 %.val12.val.i to i64
  %17 = getelementptr inbounds ptr, ptr %.val11.val.val.i, i64 %16
  %18 = load ptr, ptr %17, align 8, !tbaa !31
  %.val9.i = load ptr, ptr %18, align 8, !tbaa !3
  %19 = getelementptr i8, ptr %18, i64 32
  %.val10.i = load ptr, ptr %19, align 8, !tbaa !13
  %20 = getelementptr i8, ptr %.val9.i, i64 32
  %.val9.val.i = load ptr, ptr %20, align 8, !tbaa !14
  %.val10.val.i = load i32, ptr %.val10.i, align 4, !tbaa !28
  %21 = getelementptr i8, ptr %.val9.val.i, i64 8
  %.val9.val.val.i = load ptr, ptr %21, align 8, !tbaa !29
  %22 = sext i32 %.val10.val.i to i64
  %23 = getelementptr inbounds ptr, ptr %.val9.val.val.i, i64 %22
  %24 = load ptr, ptr %23, align 8, !tbaa !31
  %25 = getelementptr i8, ptr %24, i64 20
  %.val13.i = load i32, ptr %25, align 4
  %26 = and i32 %.val13.i, 15
  %.not.i = icmp eq i32 %26, 5
  br i1 %.not.i, label %27, label %Abc_NtkLatchIsSelfFeed.exit

27:                                               ; preds = %12
  %.val7.i = load ptr, ptr %24, align 8, !tbaa !3
  %28 = getelementptr i8, ptr %24, i64 32
  %.val8.i = load ptr, ptr %28, align 8, !tbaa !13
  %29 = getelementptr i8, ptr %.val7.i, i64 32
  %.val7.val.i = load ptr, ptr %29, align 8, !tbaa !14
  %.val8.val.i = load i32, ptr %.val8.i, align 4, !tbaa !28
  %30 = getelementptr i8, ptr %.val7.val.i, i64 8
  %.val7.val.val.i = load ptr, ptr %30, align 8, !tbaa !29
  %31 = sext i32 %.val8.val.i to i64
  %32 = getelementptr inbounds ptr, ptr %.val7.val.val.i, i64 %31
  %33 = load ptr, ptr %32, align 8, !tbaa !31
  %34 = getelementptr i8, ptr %33, i64 20
  %.val14.i = load i32, ptr %34, align 4
  %35 = and i32 %.val14.i, 15
  %.not15.i = icmp eq i32 %35, 8
  br i1 %.not15.i, label %tailrecurse.i.i, label %Abc_NtkLatchIsSelfFeed.exit

tailrecurse.i.i:                                  ; preds = %27, %52
  %.tr.i.i = phi ptr [ %58, %52 ], [ %33, %27 ]
  %.tr19.i.i = phi ptr [ %.tr.i.i, %52 ], [ %9, %27 ]
  %36 = icmp eq ptr %.tr.i.i, %.tr19.i.i
  br i1 %36, label %Abc_NtkLatchIsSelfFeed.exit, label %37

37:                                               ; preds = %tailrecurse.i.i
  %.val.i.i = load ptr, ptr %.tr.i.i, align 8, !tbaa !3
  %38 = getelementptr i8, ptr %.tr.i.i, i64 32
  %.val9.i.i = load ptr, ptr %38, align 8, !tbaa !13
  %39 = getelementptr i8, ptr %.val.i.i, i64 32
  %.val.val.i.i = load ptr, ptr %39, align 8, !tbaa !14
  %.val9.val.i.i = load i32, ptr %.val9.i.i, align 4, !tbaa !28
  %40 = getelementptr i8, ptr %.val.val.i.i, i64 8
  %.val.val.val.i.i = load ptr, ptr %40, align 8, !tbaa !29
  %41 = sext i32 %.val9.val.i.i to i64
  %42 = getelementptr inbounds ptr, ptr %.val.val.val.i.i, i64 %41
  %43 = load ptr, ptr %42, align 8, !tbaa !31
  %.val10.i.i = load ptr, ptr %43, align 8, !tbaa !3
  %44 = getelementptr i8, ptr %43, i64 32
  %.val11.i.i = load ptr, ptr %44, align 8, !tbaa !13
  %45 = getelementptr i8, ptr %.val10.i.i, i64 32
  %.val10.val.i.i = load ptr, ptr %45, align 8, !tbaa !14
  %.val11.val.i.i = load i32, ptr %.val11.i.i, align 4, !tbaa !28
  %46 = getelementptr i8, ptr %.val10.val.i.i, i64 8
  %.val10.val.val.i.i = load ptr, ptr %46, align 8, !tbaa !29
  %47 = sext i32 %.val11.val.i.i to i64
  %48 = getelementptr inbounds ptr, ptr %.val10.val.val.i.i, i64 %47
  %49 = load ptr, ptr %48, align 8, !tbaa !31
  %50 = getelementptr i8, ptr %49, i64 20
  %.val16.i.i = load i32, ptr %50, align 4
  %51 = and i32 %.val16.i.i, 15
  %.not.i.i = icmp eq i32 %51, 5
  br i1 %.not.i.i, label %52, label %Abc_NtkLatchIsSelfFeed.exit

52:                                               ; preds = %37
  %.val12.i.i = load ptr, ptr %49, align 8, !tbaa !3
  %53 = getelementptr i8, ptr %49, i64 32
  %.val13.i.i = load ptr, ptr %53, align 8, !tbaa !13
  %54 = getelementptr i8, ptr %.val12.i.i, i64 32
  %.val12.val.i.i = load ptr, ptr %54, align 8, !tbaa !14
  %.val13.val.i.i = load i32, ptr %.val13.i.i, align 4, !tbaa !28
  %55 = getelementptr i8, ptr %.val12.val.i.i, i64 8
  %.val12.val.val.i.i = load ptr, ptr %55, align 8, !tbaa !29
  %56 = sext i32 %.val13.val.i.i to i64
  %57 = getelementptr inbounds ptr, ptr %.val12.val.val.i.i, i64 %56
  %58 = load ptr, ptr %57, align 8, !tbaa !31
  %59 = getelementptr i8, ptr %58, i64 20
  %.val17.i.i = load i32, ptr %59, align 4
  %60 = and i32 %.val17.i.i, 15
  %.not18.i.i = icmp eq i32 %60, 8
  br i1 %.not18.i.i, label %tailrecurse.i.i, label %Abc_NtkLatchIsSelfFeed.exit

Abc_NtkLatchIsSelfFeed.exit:                      ; preds = %tailrecurse.i.i, %37, %52, %12, %27
  %.0.i = phi i32 [ 0, %27 ], [ 0, %12 ], [ 1, %tailrecurse.i.i ], [ 0, %52 ], [ 0, %37 ]
  %61 = add nsw i32 %.0.i, %.012
  br label %62

62:                                               ; preds = %Abc_NtkLatchIsSelfFeed.exit, %7
  %.1 = phi i32 [ %61, %Abc_NtkLatchIsSelfFeed.exit ], [ %.012, %7 ]
  %indvars.iv.next = add nuw nsw i64 %indvars.iv, 1
  %exitcond.not = icmp eq i64 %indvars.iv.next, %wide.trip.count
  br i1 %exitcond.not, label %.critedge, label %7, !llvm.loop !34

.critedge:                                        ; preds = %62, %1
  %.0.lcssa = phi i32 [ 0, %1 ], [ %.1, %62 ]
  ret i32 %.0.lcssa
}